target datalayout = "e-m:e-p270:32:32-p271:32:32-p272:64:64-i64:64-i128:128-f80:128-n8:16:32:64-S128"
target triple = "x86_64-pc-linux-gnu"

%struct.H5S_t = type { %struct.H5S_extent_t, %struct.H5S_select_t }
%struct.H5S_extent_t = type { %struct.H5O_shared_t, i32, i32, i64, i32, ptr, ptr }
%struct.H5O_shared_t = type { i32, ptr, i32, %union.anon }
%union.anon = type { %struct.H5O_mesg_loc_t }
%struct.H5O_mesg_loc_t = type { i32, i64 }
%struct.H5S_select_t = type { ptr, i8, [32 x i64], i64, %union.anon.0 }
%union.anon.0 = type { ptr }

; Function Attrs: nounwind uwtable
define i32 @H5S_select_offset(ptr noundef %0, ptr noundef %1) #0 {
  %3 = alloca ptr, align 8
  %4 = alloca ptr, align 8
  store ptr %0, ptr %3, align 8
  store ptr %1, ptr %4, align 8
  %5 = load ptr, ptr %4, align 8
  %6 = icmp ne ptr %5, null
  br i1 %6, label %7, label %19

7:                                                ; preds = %2
  %8 = load ptr, ptr %3, align 8
  %9 = getelementptr inbounds %struct.H5S_t, ptr %8, i32 0, i32 1
  %10 = getelementptr inbounds %struct.H5S_select_t, ptr %9, i32 0, i32 2
  %11 = getelementptr inbounds [32 x i64], ptr %10, i64 0, i64 0
  %12 = load ptr, ptr %4, align 8
  %13 = load ptr, ptr %3, align 8
  %14 = getelementptr inbounds %struct.H5S_t, ptr %13, i32 0, i32 0
  %15 = getelementptr inbounds %struct.H5S_extent_t, ptr %14, i32 0, i32 4
  %16 = load i32, ptr %15, align 8
  %17 = zext i32 %16 to i64
  %18 = mul i64 8, %17
  call void @llvm.memcpy.p0.p0.i64(ptr align 8 %11, ptr align 8 %12, i64 %18, i1 false)
  br label %30

19:                                               ; preds = %2
  %20 = load ptr, ptr %3, align 8
  %21 = getelementptr inbounds %struct.H5S_t, ptr %20, i32 0, i32 1
  %22 = getelementptr inbounds %struct.H5S_select_t, ptr %21, i32 0, i32 2
  %23 = getelementptr inbounds [32 x i64], ptr %22, i64 0, i64 0
  %24 = load ptr, ptr %3, align 8
  %25 = getelementptr inbounds %struct.H5S_t, ptr %24, i32 0, i32 0
  %26 = getelementptr inbounds %struct.H5S_extent_t, ptr %25, i32 0, i32 4
  %27 = load i32, ptr %26, align 8
  %28 = zext i32 %27 to i64
  %29 = mul i64 8, %28
  call void @llvm.memset.p0.i64(ptr align 8 %23, i8 0, i64 %29, i1 false)
  br label %30

30:                                               ; preds = %19, %7
  %31 = load ptr, ptr %3, align 8
  %32 = getelementptr inbounds %struct.H5S_t, ptr %31, i32 0, i32 1
  %33 = getelementptr inbounds %struct.H5S_select_t, ptr %32, i32 0, i32 1
  store i8 1, ptr %33, align 8
  ret i32 0
}