; Function Attrs: mustprogress nofree norecurse nosync nounwind willreturn memory(argmem: readwrite) uwtable
define noundef i32 @H5S_select_offset(ptr nocapture noundef %0, ptr noundef readonly %1) local_unnamed_addr #0 {
  %.not = icmp eq ptr %1, null
  %3 = getelementptr inbounds i8, ptr %0, i64 96
  %4 = getelementptr inbounds i8, ptr %0, i64 56
  %5 = load i32, ptr %4, align 8
  %6 = zext i32 %5 to i64
  %7 = shl nuw nsw i64 %6, 3
  br i1 %.not, label %9, label %8

8:                                                ; preds = %2
  tail call void @llvm.memcpy.p0.p0.i64(ptr nonnull align 8 %3, ptr nonnull align 8 %1, i64 %7, i1 false)
  br label %10

9:                                                ; preds = %2
  tail call void @llvm.memset.p0.i64(ptr nonnull align 8 %3, i8 0, i64 %7, i1 false)
  br label %10

10:                                               ; preds = %9, %8
  %11 = getelementptr inbounds i8, ptr %0, i64 88
  store i8 1, ptr %11, align 8
  ret i32 0
}